target datalayout = "e-m:e-p270:32:32-p271:32:32-p272:64:64-i64:64-i128:128-f80:128-n8:16:32:64-S128"
target triple = "x86_64-pc-linux-gnu"

%struct.WOLFSSL = type <{ ptr, ptr, ptr, ptr, [48 x i8], [48 x i8], ptr, ptr, ptr, ptr, ptr, ptr, ptr, ptr, ptr, ptr, ptr, ptr, ptr, i32, [4 x i8], %struct.WOLFSSL_CIPHER, ptr, %struct.Ciphers, %struct.Ciphers, [8 x i8], %struct.Buffers, ptr, ptr, %struct.WOLFSSL_ALERT_HISTORY, %struct.WOLFSSL_ALERT, i32, i32, i32, i32, i32, i32, i32, i16, [2 x i8], i32, i8, %struct.RecordLayerHeader, %struct.MsgsReceived, %struct.ProtocolVersion, %struct.ProtocolVersion, %struct.CipherSpecs, [2 x i8], %struct.Keys, %struct.Options, ptr, i8, i8, i16, [10 x i16], i8, i8, i16, i16, [38 x i8], i32, i32, [4 x i8], ptr, i8, i8, [6 x i8], ptr, ptr, i16, i8, i8, i32, i8, [3 x i8], i32, %struct.OneTimeAuth, ptr }>
%struct.WOLFSSL_CIPHER = type { i8, i8, ptr }
%struct.Ciphers = type { ptr, ptr, ptr, ptr, i8, i8 }
%struct.Buffers = type { %struct.bufferStatic, %struct.bufferStatic, %struct.WOLFSSL_BUFFER_INFO, %struct.WOLFSSL_BUFFER_INFO, %struct.WOLFSSL_BUFFER_INFO, %struct.WOLFSSL_BUFFER_INFO, i32, i32, i8, i8, i8, i8, %struct.WOLFSSL_BUFFER_INFO, %struct.WOLFSSL_BUFFER_INFO, %struct.WOLFSSL_BUFFER_INFO, %struct.WOLFSSL_BUFFER_INFO, ptr, ptr, ptr, i8, i8, i32, i32, ptr, i32, [1 x ptr] }
%struct.bufferStatic = type { [5 x i8], ptr, i32, i32, i32, i8, i8 }
%struct.WOLFSSL_BUFFER_INFO = type { ptr, i32 }
%struct.WOLFSSL_ALERT_HISTORY = type { %struct.WOLFSSL_ALERT, %struct.WOLFSSL_ALERT }
%struct.WOLFSSL_ALERT = type { i32, i32 }
%struct.RecordLayerHeader = type { i8, i8, i8, [2 x i8] }
%struct.MsgsReceived = type { i32 }
%struct.ProtocolVersion = type { i8, i8 }
%struct.CipherSpecs = type { i16, i16, i16, i16, i8, i8, i8, i8, i8, i8, i8, i8 }
%struct.Keys = type { [64 x i8], [64 x i8], [32 x i8], [32 x i8], [16 x i8], [16 x i8], [8 x i8], [12 x i8], [12 x i8], i32, i32, i32, i32, i32, i32, i8, i8, i8, i8 }
%struct.Options = type { i64, i64, i8, i8, i8, i8, i8, i8, i8, i8, i8, i8, i8, i8, i8, i8, i8, i8, i8, i8, i8, i8, i8, i16, i16, i16, i16, i16, i8 }
%struct.OneTimeAuth = type { ptr, i8 }
%struct.TLSX = type { i32, ptr, i32, i8, ptr }

; Function Attrs: nounwind uwtable
define void @TLSX_Remove(ptr noundef %0, i32 noundef %1, ptr noundef %2) #0 {
  %4 = alloca ptr, align 8
  %5 = alloca i32, align 4
  %6 = alloca ptr, align 8
  %7 = alloca ptr, align 8
  %8 = alloca ptr, align 8
  %9 = alloca i32, align 4
  store ptr %0, ptr %4, align 8, !tbaa !75
  store i32 %1, ptr %5, align 4, !tbaa !12
  store ptr %2, ptr %6, align 8, !tbaa !54
  call void @llvm.lifetime.start.p0(i64 8, ptr %7) #8
  call void @llvm.lifetime.start.p0(i64 8, ptr %8) #8
  %10 = load ptr, ptr %4, align 8, !tbaa !75
  %11 = icmp eq ptr %10, null
  br i1 %11, label %12, label %13

12:                                               ; preds = %3
  store i32 1, ptr %9, align 4
  br label %47

13:                                               ; preds = %3
  %14 = load ptr, ptr %4, align 8, !tbaa !75
  %15 = load ptr, ptr %14, align 8, !tbaa !77
  store ptr %15, ptr %7, align 8, !tbaa !77
  %16 = load ptr, ptr %4, align 8, !tbaa !75
  store ptr %16, ptr %8, align 8, !tbaa !75
  br label %17

17:                                               ; preds = %28, %13
  %18 = load ptr, ptr %7, align 8, !tbaa !77
  %19 = icmp ne ptr %18, null
  br i1 %19, label %20, label %26

20:                                               ; preds = %17
  %21 = load ptr, ptr %7, align 8, !tbaa !77
  %22 = getelementptr inbounds nuw %struct.TLSX, ptr %21, i32 0, i32 0
  %23 = load i32, ptr %22, align 8, !tbaa !78
  %24 = load i32, ptr %5, align 4, !tbaa !12
  %25 = icmp ne i32 %23, %24
  br label %26

26:                                               ; preds = %20, %17
  %27 = phi i1 [ false, %17 ], [ %25, %20 ]
  br i1 %27, label %28, label %34

28:                                               ; preds = %26
  %29 = load ptr, ptr %7, align 8, !tbaa !77
  %30 = getelementptr inbounds nuw %struct.TLSX, ptr %29, i32 0, i32 4
  store ptr %30, ptr %8, align 8, !tbaa !75
  %31 = load ptr, ptr %7, align 8, !tbaa !77
  %32 = getelementptr inbounds nuw %struct.TLSX, ptr %31, i32 0, i32 4
  %33 = load ptr, ptr %32, align 8, !tbaa !80
  store ptr %33, ptr %7, align 8, !tbaa !77
  br label %17, !llvm.loop !81

34:                                               ; preds = %26
  %35 = load ptr, ptr %7, align 8, !tbaa !77
  %36 = icmp ne ptr %35, null
  br i1 %36, label %37, label %46

37:                                               ; preds = %34
  %38 = load ptr, ptr %7, align 8, !tbaa !77
  %39 = getelementptr inbounds nuw %struct.TLSX, ptr %38, i32 0, i32 4
  %40 = load ptr, ptr %39, align 8, !tbaa !80
  %41 = load ptr, ptr %8, align 8, !tbaa !75
  store ptr %40, ptr %41, align 8, !tbaa !77
  %42 = load ptr, ptr %7, align 8, !tbaa !77
  %43 = getelementptr inbounds nuw %struct.TLSX, ptr %42, i32 0, i32 4
  store ptr null, ptr %43, align 8, !tbaa !80
  %44 = load ptr, ptr %7, align 8, !tbaa !77
  %45 = load ptr, ptr %6, align 8, !tbaa !54
  call void @TLSX_FreeAll(ptr noundef %44, ptr noundef %45)
  br label %46

46:                                               ; preds = %37, %34
  store i32 0, ptr %9, align 4
  br label %47

47:                                               ; preds = %46, %12
  call void @llvm.lifetime.end.p0(i64 8, ptr %8) #8
  call void @llvm.lifetime.end.p0(i64 8, ptr %7) #8
  %48 = load i32, ptr %9, align 4
  switch i32 %48, label %50 [
    i32 0, label %49
    i32 1, label %49
  ]

49:                                               ; preds = %47, %47
  ret void

50:                                               ; preds = %47
  unreachable
}

; Function Attrs: nounwind uwtable
define i32 @wolfSSL_set_groups(ptr noundef %0, ptr noundef %1, i32 noundef %2) #0 {
  %4 = alloca i32, align 4
  %5 = alloca ptr, align 8
  %6 = alloca ptr, align 8
  %7 = alloca i32, align 4
  %8 = alloca i32, align 4
  %9 = alloca i32, align 4
  %10 = alloca i32, align 4
  store ptr %0, ptr %5, align 8, !tbaa !3
  store ptr %1, ptr %6, align 8, !tbaa !10
  store i32 %2, ptr %7, align 4, !tbaa !12
  call void @llvm.lifetime.start.p0(i64 4, ptr %8) #8
  call void @llvm.lifetime.start.p0(i64 4, ptr %9) #8
  br label %11

11:                                               ; preds = %3
  br label %12

12:                                               ; preds = %11
  br label %13

13:                                               ; preds = %12
  %14 = load ptr, ptr %5, align 8, !tbaa !3
  %15 = icmp eq ptr %14, null
  br i1 %15, label %22, label %16

16:                                               ; preds = %13
  %17 = load ptr, ptr %6, align 8, !tbaa !10
  %18 = icmp eq ptr %17, null
  br i1 %18, label %22, label %19

19:                                               ; preds = %16
  %20 = load i32, ptr %7, align 4, !tbaa !12
  %21 = icmp sgt i32 %20, 10
  br i1 %21, label %22, label %23

22:                                               ; preds = %19, %16, %13
  store i32 -173, ptr %4, align 4
  store i32 1, ptr %10, align 4
  br label %79

23:                                               ; preds = %19
  %24 = load ptr, ptr %5, align 8, !tbaa !3
  %25 = getelementptr inbounds nuw %struct.WOLFSSL, ptr %24, i32 0, i32 44
  %26 = load i16, ptr %25, align 2
  %27 = call i32 @IsTLS_ex(i16 %26)
  %28 = icmp ne i32 %27, 0
  br i1 %28, label %30, label %29

29:                                               ; preds = %23
  store i32 -173, ptr %4, align 4
  store i32 1, ptr %10, align 4
  br label %79

30:                                               ; preds = %23
  %31 = load ptr, ptr %5, align 8, !tbaa !3
  %32 = getelementptr inbounds nuw %struct.WOLFSSL, ptr %31, i32 0, i32 55
  store i8 0, ptr %32, align 16, !tbaa !82
  %33 = load ptr, ptr %5, align 8, !tbaa !3
  %34 = getelementptr inbounds nuw %struct.WOLFSSL, ptr %33, i32 0, i32 77
  %35 = load ptr, ptr %5, align 8, !tbaa !3
  %36 = getelementptr inbounds nuw %struct.WOLFSSL, ptr %35, i32 0, i32 12
  %37 = load ptr, ptr %36, align 16, !tbaa !52
  call void @TLSX_Remove(ptr noundef %34, i32 noundef 10, ptr noundef %37)
  store i32 0, ptr %9, align 4, !tbaa !12
  br label %38

38:                                               ; preds = %71, %30
  %39 = load i32, ptr %9, align 4, !tbaa !12
  %40 = load i32, ptr %7, align 4, !tbaa !12
  %41 = icmp slt i32 %39, %40
  br i1 %41, label %42, label %74

42:                                               ; preds = %38
  %43 = load ptr, ptr %5, align 8, !tbaa !3
  %44 = load ptr, ptr %6, align 8, !tbaa !10
  %45 = load i32, ptr %9, align 4, !tbaa !12
  %46 = sext i32 %45 to i64
  %47 = getelementptr inbounds i32, ptr %44, i64 %46
  %48 = load i32, ptr %47, align 4, !tbaa !12
  %49 = trunc i32 %48 to i16
  %50 = call i32 @wolfSSL_UseSupportedCurve(ptr noundef %43, i16 noundef zeroext %49)
  store i32 %50, ptr %8, align 4, !tbaa !12
  %51 = icmp ne i32 %50, 1
  br i1 %51, label %52, label %59

52:                                               ; preds = %42
  %53 = load ptr, ptr %5, align 8, !tbaa !3
  %54 = getelementptr inbounds nuw %struct.WOLFSSL, ptr %53, i32 0, i32 77
  %55 = load ptr, ptr %5, align 8, !tbaa !3
  %56 = getelementptr inbounds nuw %struct.WOLFSSL, ptr %55, i32 0, i32 12
  %57 = load ptr, ptr %56, align 16, !tbaa !52
  call void @TLSX_Remove(ptr noundef %54, i32 noundef 10, ptr noundef %57)
  %58 = load i32, ptr %8, align 4, !tbaa !12
  store i32 %58, ptr %4, align 4
  store i32 1, ptr %10, align 4
  br label %79

59:                                               ; preds = %42
  %60 = load ptr, ptr %6, align 8, !tbaa !10
  %61 = load i32, ptr %9, align 4, !tbaa !12
  %62 = sext i32 %61 to i64
  %63 = getelementptr inbounds i32, ptr %60, i64 %62
  %64 = load i32, ptr %63, align 4, !tbaa !12
  %65 = trunc i32 %64 to i16
  %66 = load ptr, ptr %5, align 8, !tbaa !3
  %67 = getelementptr inbounds nuw %struct.WOLFSSL, ptr %66, i32 0, i32 54
  %68 = load i32, ptr %9, align 4, !tbaa !12
  %69 = sext i32 %68 to i64
  %70 = getelementptr inbounds [10 x i16], ptr %67, i64 0, i64 %69
  store i16 %65, ptr %70, align 2, !tbaa !73
  br label %71

71:                                               ; preds = %59
  %72 = load i32, ptr %9, align 4, !tbaa !12
  %73 = add nsw i32 %72, 1
  store i32 %73, ptr %9, align 4, !tbaa !12
  br label %38, !llvm.loop !83

74:                                               ; preds = %38
  %75 = load i32, ptr %7, align 4, !tbaa !12
  %76 = trunc i32 %75 to i8
  %77 = load ptr, ptr %5, align 8, !tbaa !3
  %78 = getelementptr inbounds nuw %struct.WOLFSSL, ptr %77, i32 0, i32 55
  store i8 %76, ptr %78, align 16, !tbaa !82
  store i32 1, ptr %4, align 4
  store i32 1, ptr %10, align 4
  br label %79

79:                                               ; preds = %74, %52, %29, %22
  call void @llvm.lifetime.end.p0(i64 4, ptr %9) #8
  call void @llvm.lifetime.end.p0(i64 4, ptr %8) #8
  %80 = load i32, ptr %4, align 4
  ret i32 %80
}