; Function Attrs: nounwind uwtable
define i32 @wolfSSL_set_groups(ptr noundef %0, ptr noundef readonly captures(address_is_null) %1, i32 noundef %2) local_unnamed_addr #0 {
  %4 = icmp eq ptr %0, null
  %5 = icmp eq ptr %1, null
  %or.cond = or i1 %4, %5
  %6 = icmp sgt i32 %2, 10
  %or.cond3 = or i1 %or.cond, %6
  br i1 %or.cond3, label %TLSX_Remove.exit40, label %7

7:                                                ; preds = %3
  %8 = getelementptr inbounds nuw i8, ptr %0, i64 710
  %9 = load i16, ptr %8, align 2
  %10 = tail call i32 @IsTLS_ex(i16 %9) #17
  %.not = icmp eq i32 %10, 0
  br i1 %.not, label %TLSX_Remove.exit40, label %11

11:                                               ; preds = %7
  %12 = getelementptr inbounds nuw i8, ptr %0, i64 1104
  store i8 0, ptr %12, align 16, !tbaa !66
  %13 = getelementptr inbounds nuw i8, ptr %0, i64 1224
  %.01319.i = load ptr, ptr %13, align 8, !tbaa !59
  %.not20.i = icmp eq ptr %.01319.i, null
  br i1 %.not20.i, label %TLSX_Remove.exit, label %.lr.ph.i.preheader

.lr.ph.i.preheader:                               ; preds = %11
  %14 = load i32, ptr %.01319.i, align 8, !tbaa !60
  %.not15.i45 = icmp eq i32 %14, 10
  br i1 %.not15.i45, label %.critedge.i, label %.lr.ph

.lr.ph.i:                                         ; preds = %.lr.ph
  %15 = load i32, ptr %.013.i, align 8, !tbaa !60
  %.not15.i = icmp eq i32 %15, 10
  br i1 %.not15.i, label %.critedge.i.loopexit, label %.lr.ph, !llvm.loop !62

.lr.ph:                                           ; preds = %.lr.ph.i.preheader, %.lr.ph.i
  %.01322.i46 = phi ptr [ %.013.i, %.lr.ph.i ], [ %.01319.i, %.lr.ph.i.preheader ]
  %16 = getelementptr inbounds nuw i8, ptr %.01322.i46, i64 24
  %.013.i = load ptr, ptr %16, align 8, !tbaa !59
  %.not.i = icmp eq ptr %.013.i, null
  br i1 %.not.i, label %TLSX_Remove.exit, label %.lr.ph.i, !llvm.loop !62

.critedge.i.loopexit:                             ; preds = %.lr.ph.i
  %17 = getelementptr inbounds nuw i8, ptr %.01322.i46, i64 24
  br label %.critedge.i

.critedge.i:                                      ; preds = %.critedge.i.loopexit, %.lr.ph.i.preheader
  %.01322.i.lcssa = phi ptr [ %.01319.i, %.lr.ph.i.preheader ], [ %.013.i, %.critedge.i.loopexit ]
  %.021.i.lcssa = phi ptr [ %13, %.lr.ph.i.preheader ], [ %17, %.critedge.i.loopexit ]
  %18 = getelementptr inbounds nuw i8, ptr %.01322.i.lcssa, i64 24
  %19 = load ptr, ptr %18, align 8, !tbaa !63
  store ptr %19, ptr %.021.i.lcssa, align 8, !tbaa !59
  store ptr null, ptr %18, align 8, !tbaa !63
  tail call void @TLSX_FreeAll(ptr noundef nonnull %.01322.i.lcssa, ptr readnone poison)
  br label %TLSX_Remove.exit

TLSX_Remove.exit:                                 ; preds = %.lr.ph, %11, %.critedge.i
  %20 = icmp sgt i32 %2, 0
  br i1 %20, label %.lr.ph49, label %._crit_edge

.lr.ph49:                                         ; preds = %TLSX_Remove.exit
  %21 = getelementptr inbounds nuw i8, ptr %0, i64 1084
  %wide.trip.count = zext nneg i32 %2 to i64
  br label %22

22:                                               ; preds = %.lr.ph49, %34
  %indvars.iv = phi i64 [ 0, %.lr.ph49 ], [ %indvars.iv.next, %34 ]
  %23 = getelementptr inbounds nuw i32, ptr %1, i64 %indvars.iv
  %24 = load i32, ptr %23, align 4, !tbaa !3
  %25 = trunc i32 %24 to i16
  %26 = tail call i32 @wolfSSL_UseSupportedCurve(ptr noundef %0, i16 noundef zeroext %25) #17
  %.not30 = icmp eq i32 %26, 1
  br i1 %.not30, label %34, label %27

27:                                               ; preds = %22
  %.01319.i31 = load ptr, ptr %13, align 8, !tbaa !59
  %.not20.i32 = icmp eq ptr %.01319.i31, null
  br i1 %.not20.i32, label %TLSX_Remove.exit40, label %.lr.ph.i33.preheader

.lr.ph.i33.preheader:                             ; preds = %27
  %28 = load i32, ptr %.01319.i31, align 8, !tbaa !60
  %.not15.i3650 = icmp eq i32 %28, 10
  br i1 %.not15.i3650, label %.critedge.i39, label %.lr.ph52

.lr.ph.i33:                                       ; preds = %.lr.ph52
  %29 = load i32, ptr %.013.i37, align 8, !tbaa !60
  %.not15.i36 = icmp eq i32 %29, 10
  br i1 %.not15.i36, label %.critedge.i39.loopexit, label %.lr.ph52, !llvm.loop !62

.lr.ph52:                                         ; preds = %.lr.ph.i33.preheader, %.lr.ph.i33
  %.01322.i3451 = phi ptr [ %.013.i37, %.lr.ph.i33 ], [ %.01319.i31, %.lr.ph.i33.preheader ]
  %30 = getelementptr inbounds nuw i8, ptr %.01322.i3451, i64 24
  %.013.i37 = load ptr, ptr %30, align 8, !tbaa !59
  %.not.i38 = icmp eq ptr %.013.i37, null
  br i1 %.not.i38, label %TLSX_Remove.exit40, label %.lr.ph.i33, !llvm.loop !62

.critedge.i39.loopexit:                           ; preds = %.lr.ph.i33
  %31 = getelementptr inbounds nuw i8, ptr %.01322.i3451, i64 24
  br label %.critedge.i39

.critedge.i39:                                    ; preds = %.critedge.i39.loopexit, %.lr.ph.i33.preheader
  %.01322.i34.lcssa = phi ptr [ %.01319.i31, %.lr.ph.i33.preheader ], [ %.013.i37, %.critedge.i39.loopexit ]
  %.021.i35.lcssa = phi ptr [ %13, %.lr.ph.i33.preheader ], [ %31, %.critedge.i39.loopexit ]
  %32 = getelementptr inbounds nuw i8, ptr %.01322.i34.lcssa, i64 24
  %33 = load ptr, ptr %32, align 8, !tbaa !63
  store ptr %33, ptr %.021.i35.lcssa, align 8, !tbaa !59
  store ptr null, ptr %32, align 8, !tbaa !63
  tail call void @TLSX_FreeAll(ptr noundef nonnull %.01322.i34.lcssa, ptr readnone poison)
  br label %TLSX_Remove.exit40

34:                                               ; preds = %22
  %35 = load i32, ptr %23, align 4, !tbaa !3
  %36 = trunc i32 %35 to i16
  %37 = getelementptr inbounds nuw [10 x i16], ptr %21, i64 0, i64 %indvars.iv
  store i16 %36, ptr %37, align 2, !tbaa !64
  %indvars.iv.next = add nuw nsw i64 %indvars.iv, 1
  %exitcond.not = icmp eq i64 %indvars.iv.next, %wide.trip.count
  br i1 %exitcond.not, label %._crit_edge, label %22, !llvm.loop !67

._crit_edge:                                      ; preds = %34, %TLSX_Remove.exit
  %38 = trunc i32 %2 to i8
  store i8 %38, ptr %12, align 16, !tbaa !66
  br label %TLSX_Remove.exit40

TLSX_Remove.exit40:                               ; preds = %.lr.ph52, %.critedge.i39, %27, %7, %3, %._crit_edge
  %.025 = phi i32 [ 1, %._crit_edge ], [ -173, %3 ], [ -173, %7 ], [ %26, %27 ], [ %26, %.critedge.i39 ], [ %26, %.lr.ph52 ]
  ret i32 %.025
}